; ModuleID = 'bench/linux/original/utmath.ll'
source_filename = "bench/linux/original/utmath.ll"
target datalayout = "e-m:e-p270:32:32-p271:32:32-p272:64:64-i64:64-i128:128-f80:128-n8:16:32:64-S128"
target triple = "x86_64-unknown-linux-gnu"

@_acpi_module_name = internal constant [7 x i8] c"utmath\00", align 1
@.str = private unnamed_addr constant [15 x i8] c"Divide by zero\00", align 1

; Function Attrs: fn_ret_thunk_extern mustprogress nofree norecurse nosync nounwind null_pointer_is_valid willreturn memory(argmem: write)
define dso_local noundef i32 @acpi_ut_short_multiply(i64 noundef %0, i32 noundef %1, ptr noundef writeonly %2) local_unnamed_addr #0 align 16 {
  %4 = icmp eq ptr %2, null
  br i1 %4, label %8, label %5

5:                                                ; preds = %3
  %6 = zext i32 %1 to i64
  %7 = mul i64 %6, %0
  store i64 %7, ptr %2, align 8
  br label %8

8:                                                ; preds = %5, %3
  ret i32 0
}

; Function Attrs: fn_ret_thunk_extern mustprogress nofree norecurse nosync nounwind null_pointer_is_valid willreturn memory(argmem: write)
define dso_local noundef i32 @acpi_ut_short_shift_left(i64 noundef %0, i32 noundef %1, ptr noundef writeonly %2) local_unnamed_addr #0 align 16 {
  %4 = icmp eq ptr %2, null
  br i1 %4, label %8, label %5

5:                                                ; preds = %3
  %6 = zext nneg i32 %1 to i64
  %7 = shl i64 %0, %6
  store i64 %7, ptr %2, align 8
  br label %8

8:                                                ; preds = %5, %3
  ret i32 0
}

; Function Attrs: fn_ret_thunk_extern mustprogress nofree norecurse nosync nounwind null_pointer_is_valid willreturn memory(argmem: write)
define dso_local noundef i32 @acpi_ut_short_shift_right(i64 noundef %0, i32 noundef %1, ptr noundef writeonly %2) local_unnamed_addr #0 align 16 {
  %4 = icmp eq ptr %2, null
  br i1 %4, label %8, label %5

5:                                                ; preds = %3
  %6 = zext nneg i32 %1 to i64
  %7 = lshr i64 %0, %6
  store i64 %7, ptr %2, align 8
  br label %8

8:                                                ; preds = %5, %3
  ret i32 0
}

; Function Attrs: fn_ret_thunk_extern nounwind null_pointer_is_valid
define dso_local noundef i32 @acpi_ut_short_divide(i64 noundef %0, i32 noundef %1, ptr noundef writeonly %2, ptr noundef writeonly %3) local_unnamed_addr #1 align 16 {
  %5 = icmp eq i32 %1, 0
  br i1 %5, label %6, label %7

6:                                                ; preds = %4
  tail call void (ptr, i32, ptr, ...) @acpi_error(ptr noundef nonnull @_acpi_module_name, i32 noundef 453, ptr noundef nonnull @.str) #3
  br label %18

7:                                                ; preds = %4
  %8 = icmp eq ptr %2, null
  br i1 %8, label %12, label %9

9:                                                ; preds = %7
  %10 = zext i32 %1 to i64
  %11 = udiv i64 %0, %10
  store i64 %11, ptr %2, align 8
  br label %12

12:                                               ; preds = %9, %7
  %13 = icmp eq ptr %3, null
  br i1 %13, label %18, label %14

14:                                               ; preds = %12
  %15 = zext i32 %1 to i64
  %16 = urem i64 %0, %15
  %17 = trunc i64 %16 to i32
  store i32 %17, ptr %3, align 4
  br label %18

18:                                               ; preds = %14, %12, %6
  %19 = phi i32 [ 12300, %6 ], [ 0, %14 ], [ 0, %12 ]
  ret i32 %19
}

; Function Attrs: null_pointer_is_valid
declare dso_local void @acpi_error(ptr noundef, i32 noundef, ptr noundef, ...) local_unnamed_addr #2

; Function Attrs: fn_ret_thunk_extern nounwind null_pointer_is_valid
define dso_local noundef i32 @acpi_ut_divide(i64 noundef %0, i64 noundef %1, ptr noundef writeonly %2, ptr noundef writeonly %3) local_unnamed_addr #1 align 16 {
  %5 = icmp eq i64 %1, 0
  br i1 %5, label %6, label %7

6:                                                ; preds = %4
  tail call void (ptr, i32, ptr, ...) @acpi_error(ptr noundef nonnull @_acpi_module_name, i32 noundef 478, ptr noundef nonnull @.str) #3
  br label %15

7:                                                ; preds = %4
  %8 = icmp eq ptr %2, null
  br i1 %8, label %11, label %9

9:                                                ; preds = %7
  %10 = udiv i64 %0, %1
  store i64 %10, ptr %2, align 8
  br label %11

11:                                               ; preds = %9, %7
  %12 = icmp eq ptr %3, null
  br i1 %12, label %15, label %13

13:                                               ; preds = %11
  %14 = urem i64 %0, %1
  store i64 %14, ptr %3, align 8
  br label %15

15:                                               ; preds = %13, %11, %6
  %16 = phi i32 [ 12300, %6 ], [ 0, %13 ], [ 0, %11 ]
  ret i32 %16
}


!llvm.module.flags = !{!0, !1, !2, !3, !4}

!0 = !{i32 1, !"wchar_size", i32 2}
!1 = !{i32 8, !"cf-protection-branch", i32 1}
!2 = !{i32 4, !"function_return_thunk_extern", i32 1}
!3 = !{i32 4, !"indirect_branch_cs_prefix", i32 1}
!4 = !{i32 4, !"SkipRaxSetup", i32 1}
